; Function Attrs: mustprogress uwtable
define internal noundef nonnull ptr @_ZN7testing8internal24ParameterizedTestFactoryIN4absl13cord_internal12_GLOBAL__N_159CordRepBtreeHeightTest_GetAppendBufferFlatWithCapacity_TestEE10CreateTestEv(ptr noundef nonnull align 8 dereferenceable(12) %this) unnamed_addr #3 align 2 personality ptr @__gxx_personality_v0 {
entry:
  %parameter_ = getelementptr inbounds i8, ptr %this, i64 8
  store ptr %parameter_, ptr @_ZN7testing18WithParamInterfaceIiE10parameter_E, align 8
  %call = tail call noalias noundef nonnull dereferenceable(24) ptr @_Znwm(i64 noundef 24) #30
  invoke void @_ZN7testing4TestC2Ev(ptr noundef nonnull align 8 dereferenceable(16) %call)
          to label %invoke.cont unwind label %lpad

invoke.cont:                                      ; preds = %entry
  %0 = getelementptr inbounds i8, ptr %call, i64 16
  store ptr getelementptr inbounds ({ [8 x ptr], [4 x ptr] }, ptr @_ZTVN4absl13cord_internal12_GLOBAL__N_159CordRepBtreeHeightTest_GetAppendBufferFlatWithCapacity_TestE, i64 0, i32 0, i64 2), ptr %call, align 8
  store ptr getelementptr inbounds ({ [8 x ptr], [4 x ptr] }, ptr @_ZTVN4absl13cord_internal12_GLOBAL__N_159CordRepBtreeHeightTest_GetAppendBufferFlatWithCapacity_TestE, i64 0, i32 1, i64 2), ptr %0, align 8
  ret ptr %call

lpad:                                             ; preds = %entry
  %1 = landingpad { ptr, i32 }
          cleanup
  tail call void @_ZdlPv(ptr noundef nonnull %call) #31
  resume { ptr, i32 } %1
}